target datalayout = "e-m:e-p270:32:32-p271:32:32-p272:64:64-i64:64-i128:128-f80:128-n8:16:32:64-S128"
target triple = "x86_64-pc-linux-gnu"

%"class.std::vector" = type { %"struct.std::_Vector_base" }
%"struct.std::_Vector_base" = type { %"struct.std::_Vector_base<int, std::allocator<int>>::_Vector_impl" }
%"struct.std::_Vector_base<int, std::allocator<int>>::_Vector_impl" = type { %"struct.std::_Vector_base<int, std::allocator<int>>::_Vector_impl_data" }
%"struct.std::_Vector_base<int, std::allocator<int>>::_Vector_impl_data" = type { ptr, ptr, ptr }
%"class.std::__cxx11::basic_string" = type { %"struct.std::__cxx11::basic_string<char>::_Alloc_hider", i64, %union.anon }
%"struct.std::__cxx11::basic_string<char>::_Alloc_hider" = type { ptr }
%union.anon = type { i64, [8 x i8] }
%struct.OilImage = type { %"class.std::__cxx11::basic_string", i32, i32, i32, %"class.cv::Mat" }
%"class.cv::Mat" = type { i32, i32, i32, i32, ptr, ptr, ptr, ptr, ptr, ptr, %"struct.cv::MatSize", %"struct.cv::MatStep" }
%"struct.cv::MatSize" = type { ptr }
%"struct.cv::MatStep" = type { ptr, [2 x i64] }
%"class.cv::_InputArray" = type { i32, ptr, %"class.cv::Size_" }
%"class.cv::Size_" = type { i32, i32 }
%"class.cv::_OutputArray" = type { %"class.cv::_InputArray" }
%"class.cv::MatExpr" = type { ptr, i32, %"class.cv::Mat", %"class.cv::Mat", %"class.cv::Mat", double, double, %"class.cv::Scalar_" }
%"class.cv::Scalar_" = type { %"class.cv::Vec" }
%"class.cv::Vec" = type { %"class.cv::Matx" }
%"class.cv::Matx" = type { [4 x double] }

@colorSpace = hidden global %"class.std::vector" zeroinitializer, align 8

; Function Attrs: inlinehint mustprogress uwtable
define linkonce_odr hidden void @_ZN2cv11_InputArrayC2Ev(ptr noundef nonnull align 8 dereferenceable(24) %0) unnamed_addr #8 comdat align 2 {
  %2 = alloca ptr, align 8
  store ptr %0, ptr %2, align 8, !tbaa !57
  %3 = load ptr, ptr %2, align 8
  %4 = getelementptr inbounds nuw %"class.cv::_InputArray", ptr %3, i32 0, i32 2
  call void @_ZN2cv5Size_IiEC2Ev(ptr noundef nonnull align 4 dereferenceable(8) %4)
  call void @_ZN2cv11_InputArray4initEiPKv(ptr noundef nonnull align 8 dereferenceable(24) %3, i32 noundef 0, ptr noundef null)
  ret void
}

; Function Attrs: inlinehint mustprogress nounwind uwtable
define linkonce_odr hidden void @_ZN2cv11_InputArray4initEiPKv(ptr noundef nonnull align 8 dereferenceable(24) %0, i32 noundef %1, ptr noundef %2) #9 comdat align 2 {
  %4 = alloca ptr, align 8
  %5 = alloca i32, align 4
  %6 = alloca ptr, align 8
  store ptr %0, ptr %4, align 8, !tbaa !57
  store i32 %1, ptr %5, align 4, !tbaa !4
  store ptr %2, ptr %6, align 8, !tbaa !64
  %7 = load ptr, ptr %4, align 8
  %8 = load i32, ptr %5, align 4, !tbaa !4
  %9 = getelementptr inbounds nuw %"class.cv::_InputArray", ptr %7, i32 0, i32 0
  store i32 %8, ptr %9, align 8, !tbaa !70
  %10 = load ptr, ptr %6, align 8, !tbaa !64
  %11 = getelementptr inbounds nuw %"class.cv::_InputArray", ptr %7, i32 0, i32 1
  store ptr %10, ptr %11, align 8, !tbaa !72
  ret void
}

; Function Attrs: inlinehint mustprogress nounwind uwtable
define linkonce_odr hidden void @_ZN2cv5Size_IiEC2Ev(ptr noundef nonnull align 4 dereferenceable(8) %0) unnamed_addr #9 comdat align 2 {
  %2 = alloca ptr, align 8
  store ptr %0, ptr %2, align 8, !tbaa !65
  %3 = load ptr, ptr %2, align 8
  %4 = getelementptr inbounds nuw %"class.cv::Size_", ptr %3, i32 0, i32 0
  store i32 0, ptr %4, align 4, !tbaa !67
  %5 = getelementptr inbounds nuw %"class.cv::Size_", ptr %3, i32 0, i32 1
  store i32 0, ptr %5, align 4, !tbaa !69
  ret void
}

; Function Attrs: inlinehint mustprogress nounwind uwtable
define linkonce_odr hidden void @_ZN2cv11_InputArrayD2Ev(ptr noundef nonnull align 8 dereferenceable(24) %0) unnamed_addr #9 comdat align 2 {
  %2 = alloca ptr, align 8
  store ptr %0, ptr %2, align 8, !tbaa !57
  ret void
}

; Function Attrs: mustprogress nounwind uwtable
define linkonce_odr hidden noundef nonnull align 4 dereferenceable(4) ptr @_ZNSt6vectorIiSaIiEEixEm(ptr noundef nonnull align 8 dereferenceable(24) %0, i64 noundef %1) #5 comdat align 2 {
  %3 = alloca ptr, align 8
  %4 = alloca i64, align 8
  store ptr %0, ptr %3, align 8, !tbaa !16
  store i64 %1, ptr %4, align 8, !tbaa !56
  %5 = load ptr, ptr %3, align 8
  %6 = getelementptr inbounds nuw %"struct.std::_Vector_base", ptr %5, i32 0, i32 0
  %7 = getelementptr inbounds nuw %"struct.std::_Vector_base<int, std::allocator<int>>::_Vector_impl_data", ptr %6, i32 0, i32 0
  %8 = load ptr, ptr %7, align 8, !tbaa !18
  %9 = load i64, ptr %4, align 8, !tbaa !56
  %10 = getelementptr inbounds nuw i32, ptr %8, i64 %9
  ret ptr %10
}

; Function Attrs: inlinehint mustprogress uwtable
define linkonce_odr hidden void @_ZN2cv12_OutputArrayC2ERNS_3MatE(ptr noundef nonnull align 8 dereferenceable(24) %0, ptr noundef nonnull align 8 dereferenceable(96) %1) unnamed_addr #8 comdat align 2 {
  %3 = alloca ptr, align 8
  %4 = alloca ptr, align 8
  store ptr %0, ptr %3, align 8, !tbaa !61
  store ptr %1, ptr %4, align 8, !tbaa !59
  %5 = load ptr, ptr %3, align 8
  call void @_ZN2cv11_InputArrayC2Ev(ptr noundef nonnull align 8 dereferenceable(24) %5)
  %6 = load ptr, ptr %4, align 8, !tbaa !59
  call void @_ZN2cv11_InputArray4initEiPKv(ptr noundef nonnull align 8 dereferenceable(24) %5, i32 noundef 33619968, ptr noundef %6)
  ret void
}

; Function Attrs: inlinehint mustprogress uwtable
define linkonce_odr hidden void @_ZN2cv11_InputArrayC2ERKNS_3MatE(ptr noundef nonnull align 8 dereferenceable(24) %0, ptr noundef nonnull align 8 dereferenceable(96) %1) unnamed_addr #8 comdat align 2 {
  %3 = alloca ptr, align 8
  %4 = alloca ptr, align 8
  store ptr %0, ptr %3, align 8, !tbaa !57
  store ptr %1, ptr %4, align 8, !tbaa !59
  %5 = load ptr, ptr %3, align 8
  %6 = getelementptr inbounds nuw %"class.cv::_InputArray", ptr %5, i32 0, i32 2
  call void @_ZN2cv5Size_IiEC2Ev(ptr noundef nonnull align 4 dereferenceable(8) %6)
  %7 = load ptr, ptr %4, align 8, !tbaa !59
  call void @_ZN2cv11_InputArray4initEiPKv(ptr noundef nonnull align 8 dereferenceable(24) %5, i32 noundef 16842752, ptr noundef %7)
  ret void
}

; Function Attrs: inlinehint mustprogress uwtable
define linkonce_odr hidden noundef nonnull align 8 dereferenceable(96) ptr @_ZN2cv3MataSERKNS_7MatExprE(ptr noundef nonnull align 8 dereferenceable(96) %0, ptr noundef nonnull align 8 dereferenceable(352) %1) #8 comdat align 2 {
  %3 = alloca ptr, align 8
  %4 = alloca ptr, align 8
  store ptr %0, ptr %3, align 8, !tbaa !59
  store ptr %1, ptr %4, align 8, !tbaa !73
  %5 = load ptr, ptr %3, align 8
  %6 = load ptr, ptr %4, align 8, !tbaa !73
  %7 = getelementptr inbounds nuw %"class.cv::MatExpr", ptr %6, i32 0, i32 0
  %8 = load ptr, ptr %7, align 8, !tbaa !75
  %9 = load ptr, ptr %4, align 8, !tbaa !73
  %10 = load ptr, ptr %8, align 8, !tbaa !54
  %11 = getelementptr inbounds ptr, ptr %10, i64 3
  %12 = load ptr, ptr %11, align 8
  call void %12(ptr noundef nonnull align 8 dereferenceable(8) %8, ptr noundef nonnull align 8 dereferenceable(352) %9, ptr noundef nonnull align 8 dereferenceable(96) %5, i32 noundef -1)
  ret ptr %5
}

; Function Attrs: mustprogress uwtable
define internal void @_ZL11TrackSlideriPv(i32 noundef %0, ptr noundef %1) #6 personality ptr @__gxx_personality_v0 {
  %3 = alloca i32, align 4
  %4 = alloca ptr, align 8
  %5 = alloca ptr, align 8
  %6 = alloca %"class.cv::Mat", align 8
  %7 = alloca %"class.cv::MatExpr", align 8
  %8 = alloca ptr, align 8
  %9 = alloca i32, align 4
  %10 = alloca %"class.cv::MatExpr", align 8
  %11 = alloca %"class.cv::_InputArray", align 8
  %12 = alloca %"class.cv::_OutputArray", align 8
  %13 = alloca %"class.cv::_InputArray", align 8
  store i32 %0, ptr %3, align 4, !tbaa !4
  store ptr %1, ptr %4, align 8, !tbaa !64
  call void @llvm.lifetime.start.p0(i64 8, ptr %5) #3
  %14 = load ptr, ptr %4, align 8, !tbaa !64
  store ptr %14, ptr %5, align 8, !tbaa !50
  call void @llvm.lifetime.start.p0(i64 96, ptr %6) #3
  call void @_ZN2cv3MatC1Ev(ptr noundef nonnull align 8 dereferenceable(96) %6) #3
  call void @llvm.lifetime.start.p0(i64 352, ptr %7) #3
  %15 = load ptr, ptr %5, align 8, !tbaa !50
  %16 = getelementptr inbounds nuw %struct.OilImage, ptr %15, i32 0, i32 4
  %17 = load ptr, ptr %5, align 8, !tbaa !50
  %18 = getelementptr inbounds nuw %struct.OilImage, ptr %17, i32 0, i32 2
  %19 = load i32, ptr %18, align 4, !tbaa !30
  %20 = sitofp i32 %19 to double
  invoke void @_ZN2cvdvERKNS_3MatEd(ptr dead_on_unwind writable sret(%"class.cv::MatExpr") align 8 %7, ptr noundef nonnull align 8 dereferenceable(96) %16, double noundef %20)
          to label %21 unwind label %61

21:                                               ; preds = %2
  %22 = load ptr, ptr %5, align 8, !tbaa !50
  %23 = getelementptr inbounds nuw %struct.OilImage, ptr %22, i32 0, i32 4
  %24 = invoke noundef nonnull align 8 dereferenceable(96) ptr @_ZN2cv3MataSERKNS_7MatExprE(ptr noundef nonnull align 8 dereferenceable(96) %23, ptr noundef nonnull align 8 dereferenceable(352) %7)
          to label %25 unwind label %65

25:                                               ; preds = %21
  call void @_ZN2cv7MatExprD2Ev(ptr noundef nonnull align 8 dereferenceable(352) %7) #3
  call void @llvm.lifetime.end.p0(i64 352, ptr %7) #3
  call void @llvm.lifetime.start.p0(i64 352, ptr %10) #3
  %26 = load ptr, ptr %5, align 8, !tbaa !50
  %27 = getelementptr inbounds nuw %struct.OilImage, ptr %26, i32 0, i32 4
  %28 = load ptr, ptr %5, align 8, !tbaa !50
  %29 = getelementptr inbounds nuw %struct.OilImage, ptr %28, i32 0, i32 2
  %30 = load i32, ptr %29, align 4, !tbaa !30
  %31 = sitofp i32 %30 to double
  invoke void @_ZN2cvmlERKNS_3MatEd(ptr dead_on_unwind writable sret(%"class.cv::MatExpr") align 8 %10, ptr noundef nonnull align 8 dereferenceable(96) %27, double noundef %31)
          to label %32 unwind label %70

32:                                               ; preds = %25
  %33 = load ptr, ptr %5, align 8, !tbaa !50
  %34 = getelementptr inbounds nuw %struct.OilImage, ptr %33, i32 0, i32 4
  %35 = invoke noundef nonnull align 8 dereferenceable(96) ptr @_ZN2cv3MataSERKNS_7MatExprE(ptr noundef nonnull align 8 dereferenceable(96) %34, ptr noundef nonnull align 8 dereferenceable(352) %10)
          to label %36 unwind label %74

36:                                               ; preds = %32
  call void @_ZN2cv7MatExprD2Ev(ptr noundef nonnull align 8 dereferenceable(352) %10) #3
  call void @llvm.lifetime.end.p0(i64 352, ptr %10) #3
  call void @llvm.lifetime.start.p0(i64 24, ptr %11) #3
  %37 = load ptr, ptr %5, align 8, !tbaa !50
  %38 = getelementptr inbounds nuw %struct.OilImage, ptr %37, i32 0, i32 4
  invoke void @_ZN2cv11_InputArrayC2ERKNS_3MatE(ptr noundef nonnull align 8 dereferenceable(24) %11, ptr noundef nonnull align 8 dereferenceable(96) %38)
          to label %39 unwind label %79

39:                                               ; preds = %36
  call void @llvm.lifetime.start.p0(i64 24, ptr %12) #3
  invoke void @_ZN2cv12_OutputArrayC2ERNS_3MatE(ptr noundef nonnull align 8 dereferenceable(24) %12, ptr noundef nonnull align 8 dereferenceable(96) %6)
          to label %40 unwind label %83

40:                                               ; preds = %39
  %41 = load ptr, ptr %5, align 8, !tbaa !50
  %42 = getelementptr inbounds nuw %struct.OilImage, ptr %41, i32 0, i32 1
  %43 = load i32, ptr %42, align 8, !tbaa !40
  %44 = load ptr, ptr %5, align 8, !tbaa !50
  %45 = getelementptr inbounds nuw %struct.OilImage, ptr %44, i32 0, i32 2
  %46 = load i32, ptr %45, align 4, !tbaa !30
  %47 = load ptr, ptr %5, align 8, !tbaa !50
  %48 = getelementptr inbounds nuw %struct.OilImage, ptr %47, i32 0, i32 3
  %49 = load i32, ptr %48, align 8, !tbaa !41
  %50 = sext i32 %49 to i64
  %51 = call noundef nonnull align 4 dereferenceable(4) ptr @_ZNSt6vectorIiSaIiEEixEm(ptr noundef nonnull align 8 dereferenceable(24) @colorSpace, i64 noundef %50) #3
  %52 = load i32, ptr %51, align 4, !tbaa !4
  invoke void @_ZN2cv6xphoto11oilPaintingERKNS_11_InputArrayERKNS_12_OutputArrayEiii(ptr noundef nonnull align 8 dereferenceable(24) %11, ptr noundef nonnull align 8 dereferenceable(24) %12, i32 noundef %43, i32 noundef %46, i32 noundef %52)
          to label %53 unwind label %87

53:                                               ; preds = %40
  call void @_ZN2cv11_InputArrayD2Ev(ptr noundef nonnull align 8 dereferenceable(24) %12) #3
  call void @llvm.lifetime.end.p0(i64 24, ptr %12) #3
  call void @_ZN2cv11_InputArrayD2Ev(ptr noundef nonnull align 8 dereferenceable(24) %11) #3
  call void @llvm.lifetime.end.p0(i64 24, ptr %11) #3
  %54 = invoke noundef zeroext i1 @_ZNK2cv3Mat5emptyEv(ptr noundef nonnull align 8 dereferenceable(96) %6)
          to label %55 unwind label %93

55:                                               ; preds = %53
  br i1 %54, label %106, label %56

56:                                               ; preds = %55
  %57 = load ptr, ptr %5, align 8, !tbaa !50
  %58 = getelementptr inbounds nuw %struct.OilImage, ptr %57, i32 0, i32 0
  call void @llvm.lifetime.start.p0(i64 24, ptr %13) #3
  invoke void @_ZN2cv11_InputArrayC2ERKNS_3MatE(ptr noundef nonnull align 8 dereferenceable(24) %13, ptr noundef nonnull align 8 dereferenceable(96) %6)
          to label %59 unwind label %97

59:                                               ; preds = %56
  invoke void @_ZN2cv6imshowERKNSt7__cxx1112basic_stringIcSt11char_traitsIcESaIcEEERKNS_11_InputArrayE(ptr noundef nonnull align 8 dereferenceable(32) %58, ptr noundef nonnull align 8 dereferenceable(24) %13)
          to label %60 unwind label %101

60:                                               ; preds = %59
  call void @_ZN2cv11_InputArrayD2Ev(ptr noundef nonnull align 8 dereferenceable(24) %13) #3
  call void @llvm.lifetime.end.p0(i64 24, ptr %13) #3
  br label %106

61:                                               ; preds = %2
  %62 = landingpad { ptr, i32 }
          cleanup
  %63 = extractvalue { ptr, i32 } %62, 0
  store ptr %63, ptr %8, align 8
  %64 = extractvalue { ptr, i32 } %62, 1
  store i32 %64, ptr %9, align 4
  br label %69

65:                                               ; preds = %21
  %66 = landingpad { ptr, i32 }
          cleanup
  %67 = extractvalue { ptr, i32 } %66, 0
  store ptr %67, ptr %8, align 8
  %68 = extractvalue { ptr, i32 } %66, 1
  store i32 %68, ptr %9, align 4
  call void @_ZN2cv7MatExprD2Ev(ptr noundef nonnull align 8 dereferenceable(352) %7) #3
  br label %69

69:                                               ; preds = %65, %61
  call void @llvm.lifetime.end.p0(i64 352, ptr %7) #3
  br label %107

70:                                               ; preds = %25
  %71 = landingpad { ptr, i32 }
          cleanup
  %72 = extractvalue { ptr, i32 } %71, 0
  store ptr %72, ptr %8, align 8
  %73 = extractvalue { ptr, i32 } %71, 1
  store i32 %73, ptr %9, align 4
  br label %78

74:                                               ; preds = %32
  %75 = landingpad { ptr, i32 }
          cleanup
  %76 = extractvalue { ptr, i32 } %75, 0
  store ptr %76, ptr %8, align 8
  %77 = extractvalue { ptr, i32 } %75, 1
  store i32 %77, ptr %9, align 4
  call void @_ZN2cv7MatExprD2Ev(ptr noundef nonnull align 8 dereferenceable(352) %10) #3
  br label %78

78:                                               ; preds = %74, %70
  call void @llvm.lifetime.end.p0(i64 352, ptr %10) #3
  br label %107

79:                                               ; preds = %36
  %80 = landingpad { ptr, i32 }
          cleanup
  %81 = extractvalue { ptr, i32 } %80, 0
  store ptr %81, ptr %8, align 8
  %82 = extractvalue { ptr, i32 } %80, 1
  store i32 %82, ptr %9, align 4
  br label %92

83:                                               ; preds = %39
  %84 = landingpad { ptr, i32 }
          cleanup
  %85 = extractvalue { ptr, i32 } %84, 0
  store ptr %85, ptr %8, align 8
  %86 = extractvalue { ptr, i32 } %84, 1
  store i32 %86, ptr %9, align 4
  br label %91

87:                                               ; preds = %40
  %88 = landingpad { ptr, i32 }
          cleanup
  %89 = extractvalue { ptr, i32 } %88, 0
  store ptr %89, ptr %8, align 8
  %90 = extractvalue { ptr, i32 } %88, 1
  store i32 %90, ptr %9, align 4
  call void @_ZN2cv11_InputArrayD2Ev(ptr noundef nonnull align 8 dereferenceable(24) %12) #3
  br label %91

91:                                               ; preds = %87, %83
  call void @llvm.lifetime.end.p0(i64 24, ptr %12) #3
  call void @_ZN2cv11_InputArrayD2Ev(ptr noundef nonnull align 8 dereferenceable(24) %11) #3
  br label %92

92:                                               ; preds = %91, %79
  call void @llvm.lifetime.end.p0(i64 24, ptr %11) #3
  br label %107

93:                                               ; preds = %53
  %94 = landingpad { ptr, i32 }
          cleanup
  %95 = extractvalue { ptr, i32 } %94, 0
  store ptr %95, ptr %8, align 8
  %96 = extractvalue { ptr, i32 } %94, 1
  store i32 %96, ptr %9, align 4
  br label %107

97:                                               ; preds = %56
  %98 = landingpad { ptr, i32 }
          cleanup
  %99 = extractvalue { ptr, i32 } %98, 0
  store ptr %99, ptr %8, align 8
  %100 = extractvalue { ptr, i32 } %98, 1
  store i32 %100, ptr %9, align 4
  br label %105

101:                                              ; preds = %59
  %102 = landingpad { ptr, i32 }
          cleanup
  %103 = extractvalue { ptr, i32 } %102, 0
  store ptr %103, ptr %8, align 8
  %104 = extractvalue { ptr, i32 } %102, 1
  store i32 %104, ptr %9, align 4
  call void @_ZN2cv11_InputArrayD2Ev(ptr noundef nonnull align 8 dereferenceable(24) %13) #3
  br label %105

105:                                              ; preds = %101, %97
  call void @llvm.lifetime.end.p0(i64 24, ptr %13) #3
  br label %107

106:                                              ; preds = %60, %55
  call void @_ZN2cv3MatD1Ev(ptr noundef nonnull align 8 dereferenceable(96) %6) #3
  call void @llvm.lifetime.end.p0(i64 96, ptr %6) #3
  call void @llvm.lifetime.end.p0(i64 8, ptr %5) #3
  ret void

107:                                              ; preds = %105, %93, %92, %78, %69
  call void @_ZN2cv3MatD1Ev(ptr noundef nonnull align 8 dereferenceable(96) %6) #3
  call void @llvm.lifetime.end.p0(i64 96, ptr %6) #3
  call void @llvm.lifetime.end.p0(i64 8, ptr %5) #3
  br label %108

108:                                              ; preds = %107
  %109 = load ptr, ptr %8, align 8
  %110 = load i32, ptr %9, align 4
  %111 = insertvalue { ptr, i32 } poison, ptr %109, 0
  %112 = insertvalue { ptr, i32 } %111, i32 %110, 1
  resume { ptr, i32 } %112
}