; Function Attrs: mustprogress uwtable
define internal void @_ZL11TrackSlideriPv(i32 %0, ptr noundef %1) #6 personality ptr @__gxx_personality_v0 {
  %3 = alloca %"class.cv::Mat", align 8
  %4 = alloca %"class.cv::MatExpr", align 8
  %5 = alloca %"class.cv::MatExpr", align 8
  %6 = alloca %"class.cv::_InputArray", align 8
  %7 = alloca %"class.cv::_OutputArray", align 8
  %8 = alloca %"class.cv::_InputArray", align 8
  call void @llvm.lifetime.start.p0(i64 96, ptr nonnull %3) #15
  call void @_ZN2cv3MatC1Ev(ptr noundef nonnull align 8 dereferenceable(96) %3) #15
  call void @llvm.lifetime.start.p0(i64 352, ptr nonnull %4) #15
  %9 = getelementptr inbounds nuw i8, ptr %1, i64 48
  %10 = getelementptr inbounds nuw i8, ptr %1, i64 36
  %11 = load i32, ptr %10, align 4, !tbaa !23
  %12 = sitofp i32 %11 to double
  invoke void @_ZN2cvdvERKNS_3MatEd(ptr dead_on_unwind nonnull writable sret(%"class.cv::MatExpr") align 8 %4, ptr noundef nonnull align 8 dereferenceable(96) %9, double noundef %12)
          to label %13 unwind label %54

13:                                               ; preds = %2
  %14 = load ptr, ptr %4, align 8, !tbaa !43
  %15 = load ptr, ptr %14, align 8, !tbaa !50
  %16 = getelementptr inbounds nuw i8, ptr %15, i64 24
  %17 = load ptr, ptr %16, align 8
  invoke void %17(ptr noundef nonnull align 8 dereferenceable(8) %14, ptr noundef nonnull align 8 dereferenceable(352) %4, ptr noundef nonnull align 8 dereferenceable(96) %9, i32 noundef -1)
          to label %_ZN2cv3MataSERKNS_7MatExprE.exit unwind label %56

_ZN2cv3MataSERKNS_7MatExprE.exit:                 ; preds = %13
  %18 = getelementptr inbounds nuw i8, ptr %4, i64 208
  call void @_ZN2cv3MatD1Ev(ptr noundef nonnull align 8 dereferenceable(96) %18) #15
  %19 = getelementptr inbounds nuw i8, ptr %4, i64 112
  call void @_ZN2cv3MatD1Ev(ptr noundef nonnull align 8 dereferenceable(96) %19) #15
  %20 = getelementptr inbounds nuw i8, ptr %4, i64 16
  call void @_ZN2cv3MatD1Ev(ptr noundef nonnull align 8 dereferenceable(96) %20) #15
  call void @llvm.lifetime.end.p0(i64 352, ptr nonnull %4) #15
  call void @llvm.lifetime.start.p0(i64 352, ptr nonnull %5) #15
  %21 = load i32, ptr %10, align 4, !tbaa !23
  %22 = sitofp i32 %21 to double
  invoke void @_ZN2cvmlERKNS_3MatEd(ptr dead_on_unwind nonnull writable sret(%"class.cv::MatExpr") align 8 %5, ptr noundef nonnull align 8 dereferenceable(96) %9, double noundef %22)
          to label %23 unwind label %59

23:                                               ; preds = %_ZN2cv3MataSERKNS_7MatExprE.exit
  %24 = load ptr, ptr %5, align 8, !tbaa !43
  %25 = load ptr, ptr %24, align 8, !tbaa !50
  %26 = getelementptr inbounds nuw i8, ptr %25, i64 24
  %27 = load ptr, ptr %26, align 8
  invoke void %27(ptr noundef nonnull align 8 dereferenceable(8) %24, ptr noundef nonnull align 8 dereferenceable(352) %5, ptr noundef nonnull align 8 dereferenceable(96) %9, i32 noundef -1)
          to label %28 unwind label %61

28:                                               ; preds = %23
  %29 = getelementptr inbounds nuw i8, ptr %5, i64 208
  call void @_ZN2cv3MatD1Ev(ptr noundef nonnull align 8 dereferenceable(96) %29) #15
  %30 = getelementptr inbounds nuw i8, ptr %5, i64 112
  call void @_ZN2cv3MatD1Ev(ptr noundef nonnull align 8 dereferenceable(96) %30) #15
  %31 = getelementptr inbounds nuw i8, ptr %5, i64 16
  call void @_ZN2cv3MatD1Ev(ptr noundef nonnull align 8 dereferenceable(96) %31) #15
  call void @llvm.lifetime.end.p0(i64 352, ptr nonnull %5) #15
  call void @llvm.lifetime.start.p0(i64 24, ptr nonnull %6) #15
  %32 = getelementptr inbounds nuw i8, ptr %6, i64 16
  store i32 0, ptr %32, align 8, !tbaa !34
  %33 = getelementptr inbounds nuw i8, ptr %6, i64 20
  store i32 0, ptr %33, align 4, !tbaa !36
  store i32 16842752, ptr %6, align 8, !tbaa !37
  %34 = getelementptr inbounds nuw i8, ptr %6, i64 8
  store ptr %9, ptr %34, align 8, !tbaa !39
  call void @llvm.lifetime.start.p0(i64 24, ptr nonnull %7) #15
  %35 = getelementptr inbounds nuw i8, ptr %7, i64 8
  %36 = getelementptr inbounds nuw i8, ptr %7, i64 16
  store i64 0, ptr %36, align 8
  store i32 33619968, ptr %7, align 8, !tbaa !37
  store ptr %3, ptr %35, align 8, !tbaa !39
  %37 = getelementptr inbounds nuw i8, ptr %1, i64 32
  %38 = load i32, ptr %37, align 8, !tbaa !31
  %39 = load i32, ptr %10, align 4, !tbaa !23
  %40 = getelementptr inbounds nuw i8, ptr %1, i64 40
  %41 = load i32, ptr %40, align 8, !tbaa !32
  %42 = sext i32 %41 to i64
  %43 = load ptr, ptr @colorSpace, align 8, !tbaa !4
  %44 = getelementptr inbounds nuw i32, ptr %43, i64 %42
  %45 = load i32, ptr %44, align 4, !tbaa !21
  invoke void @_ZN2cv6xphoto11oilPaintingERKNS_11_InputArrayERKNS_12_OutputArrayEiii(ptr noundef nonnull align 8 dereferenceable(24) %6, ptr noundef nonnull align 8 dereferenceable(24) %7, i32 noundef %38, i32 noundef %39, i32 noundef %45)
          to label %46 unwind label %64

46:                                               ; preds = %28
  call void @llvm.lifetime.end.p0(i64 24, ptr nonnull %7) #15
  call void @llvm.lifetime.end.p0(i64 24, ptr nonnull %6) #15
  %47 = invoke noundef zeroext i1 @_ZNK2cv3Mat5emptyEv(ptr noundef nonnull align 8 dereferenceable(96) %3)
          to label %48 unwind label %66

48:                                               ; preds = %46
  br i1 %47, label %70, label %49

49:                                               ; preds = %48
  call void @llvm.lifetime.start.p0(i64 24, ptr nonnull %8) #15
  %50 = getelementptr inbounds nuw i8, ptr %8, i64 16
  store i32 0, ptr %50, align 8, !tbaa !34
  %51 = getelementptr inbounds nuw i8, ptr %8, i64 20
  store i32 0, ptr %51, align 4, !tbaa !36
  store i32 16842752, ptr %8, align 8, !tbaa !37
  %52 = getelementptr inbounds nuw i8, ptr %8, i64 8
  store ptr %3, ptr %52, align 8, !tbaa !39
  invoke void @_ZN2cv6imshowERKNSt7__cxx1112basic_stringIcSt11char_traitsIcESaIcEEERKNS_11_InputArrayE(ptr noundef nonnull align 8 dereferenceable(32) %1, ptr noundef nonnull align 8 dereferenceable(24) %8)
          to label %53 unwind label %68

53:                                               ; preds = %49
  call void @llvm.lifetime.end.p0(i64 24, ptr nonnull %8) #15
  br label %70

54:                                               ; preds = %2
  %55 = landingpad { ptr, i32 }
          cleanup
  br label %58

56:                                               ; preds = %13
  %57 = landingpad { ptr, i32 }
          cleanup
  call void @_ZN2cv7MatExprD2Ev(ptr noundef nonnull align 8 dereferenceable(352) %4) #15
  br label %58

58:                                               ; preds = %56, %54
  %.pn = phi { ptr, i32 } [ %57, %56 ], [ %55, %54 ]
  call void @llvm.lifetime.end.p0(i64 352, ptr nonnull %4) #15
  br label %71

59:                                               ; preds = %_ZN2cv3MataSERKNS_7MatExprE.exit
  %60 = landingpad { ptr, i32 }
          cleanup
  br label %63

61:                                               ; preds = %23
  %62 = landingpad { ptr, i32 }
          cleanup
  call void @_ZN2cv7MatExprD2Ev(ptr noundef nonnull align 8 dereferenceable(352) %5) #15
  br label %63

63:                                               ; preds = %61, %59
  %.pn20 = phi { ptr, i32 } [ %62, %61 ], [ %60, %59 ]
  call void @llvm.lifetime.end.p0(i64 352, ptr nonnull %5) #15
  br label %71

64:                                               ; preds = %28
  %65 = landingpad { ptr, i32 }
          cleanup
  call void @llvm.lifetime.end.p0(i64 24, ptr nonnull %7) #15
  call void @llvm.lifetime.end.p0(i64 24, ptr nonnull %6) #15
  br label %71

66:                                               ; preds = %46
  %67 = landingpad { ptr, i32 }
          cleanup
  br label %71

68:                                               ; preds = %49
  %69 = landingpad { ptr, i32 }
          cleanup
  call void @llvm.lifetime.end.p0(i64 24, ptr nonnull %8) #15
  br label %71

70:                                               ; preds = %53, %48
  call void @_ZN2cv3MatD1Ev(ptr noundef nonnull align 8 dereferenceable(96) %3) #15
  call void @llvm.lifetime.end.p0(i64 96, ptr nonnull %3) #15
  ret void

71:                                               ; preds = %68, %66, %64, %63, %58
  %.pn25.pn = phi { ptr, i32 } [ %69, %68 ], [ %67, %66 ], [ %65, %64 ], [ %.pn20, %63 ], [ %.pn, %58 ]
  call void @_ZN2cv3MatD1Ev(ptr noundef nonnull align 8 dereferenceable(96) %3) #15
  call void @llvm.lifetime.end.p0(i64 96, ptr nonnull %3) #15
  resume { ptr, i32 } %.pn25.pn
}